target datalayout = "e-m:e-p270:32:32-p271:32:32-p272:64:64-i64:64-i128:128-f80:128-n8:16:32:64-S128"
target triple = "x86_64-pc-linux-gnu"

; Function Attrs: nounwind uwtable
define internal i32 @RsaMGF(i32 noundef %0, ptr noundef %1, i32 noundef %2, ptr noundef %3, i32 noundef %4, ptr noundef %5) #0 {
  %7 = alloca i32, align 4
  %8 = alloca ptr, align 8
  %9 = alloca i32, align 4
  %10 = alloca ptr, align 8
  %11 = alloca i32, align 4
  %12 = alloca ptr, align 8
  %13 = alloca i32, align 4
  store i32 %0, ptr %7, align 4, !tbaa !7
  store ptr %1, ptr %8, align 8, !tbaa !27
  store i32 %2, ptr %9, align 4, !tbaa !7
  store ptr %3, ptr %10, align 8, !tbaa !27
  store i32 %4, ptr %11, align 4, !tbaa !7
  store ptr %5, ptr %12, align 8, !tbaa !3
  call void @llvm.lifetime.start.p0(i64 4, ptr %13) #8
  %14 = load i32, ptr %7, align 4, !tbaa !7
  switch i32 %14, label %64 [
    i32 26, label %15
    i32 4, label %22
    i32 1, label %29
    i32 2, label %36
    i32 3, label %43
    i32 5, label %50
    i32 6, label %57
  ]

15:                                               ; preds = %6
  %16 = load ptr, ptr %8, align 8, !tbaa !27
  %17 = load i32, ptr %9, align 4, !tbaa !7
  %18 = load ptr, ptr %10, align 8, !tbaa !27
  %19 = load i32, ptr %11, align 4, !tbaa !7
  %20 = load ptr, ptr %12, align 8, !tbaa !3
  %21 = call i32 @RsaMGF1(i32 noundef 4, ptr noundef %16, i32 noundef %17, ptr noundef %18, i32 noundef %19, ptr noundef %20)
  store i32 %21, ptr %13, align 4, !tbaa !7
  br label %68

22:                                               ; preds = %6
  %23 = load ptr, ptr %8, align 8, !tbaa !27
  %24 = load i32, ptr %9, align 4, !tbaa !7
  %25 = load ptr, ptr %10, align 8, !tbaa !27
  %26 = load i32, ptr %11, align 4, !tbaa !7
  %27 = load ptr, ptr %12, align 8, !tbaa !3
  %28 = call i32 @RsaMGF1(i32 noundef 5, ptr noundef %23, i32 noundef %24, ptr noundef %25, i32 noundef %26, ptr noundef %27)
  store i32 %28, ptr %13, align 4, !tbaa !7
  br label %68

29:                                               ; preds = %6
  %30 = load ptr, ptr %8, align 8, !tbaa !27
  %31 = load i32, ptr %9, align 4, !tbaa !7
  %32 = load ptr, ptr %10, align 8, !tbaa !27
  %33 = load i32, ptr %11, align 4, !tbaa !7
  %34 = load ptr, ptr %12, align 8, !tbaa !3
  %35 = call i32 @RsaMGF1(i32 noundef 6, ptr noundef %30, i32 noundef %31, ptr noundef %32, i32 noundef %33, ptr noundef %34)
  store i32 %35, ptr %13, align 4, !tbaa !7
  br label %68

36:                                               ; preds = %6
  %37 = load ptr, ptr %8, align 8, !tbaa !27
  %38 = load i32, ptr %9, align 4, !tbaa !7
  %39 = load ptr, ptr %10, align 8, !tbaa !27
  %40 = load i32, ptr %11, align 4, !tbaa !7
  %41 = load ptr, ptr %12, align 8, !tbaa !3
  %42 = call i32 @RsaMGF1(i32 noundef 7, ptr noundef %37, i32 noundef %38, ptr noundef %39, i32 noundef %40, ptr noundef %41)
  store i32 %42, ptr %13, align 4, !tbaa !7
  br label %68

43:                                               ; preds = %6
  %44 = load ptr, ptr %8, align 8, !tbaa !27
  %45 = load i32, ptr %9, align 4, !tbaa !7
  %46 = load ptr, ptr %10, align 8, !tbaa !27
  %47 = load i32, ptr %11, align 4, !tbaa !7
  %48 = load ptr, ptr %12, align 8, !tbaa !3
  %49 = call i32 @RsaMGF1(i32 noundef 8, ptr noundef %44, i32 noundef %45, ptr noundef %46, i32 noundef %47, ptr noundef %48)
  store i32 %49, ptr %13, align 4, !tbaa !7
  br label %68

50:                                               ; preds = %6
  %51 = load ptr, ptr %8, align 8, !tbaa !27
  %52 = load i32, ptr %9, align 4, !tbaa !7
  %53 = load ptr, ptr %10, align 8, !tbaa !27
  %54 = load i32, ptr %11, align 4, !tbaa !7
  %55 = load ptr, ptr %12, align 8, !tbaa !3
  %56 = call i32 @RsaMGF1(i32 noundef 16, ptr noundef %51, i32 noundef %52, ptr noundef %53, i32 noundef %54, ptr noundef %55)
  store i32 %56, ptr %13, align 4, !tbaa !7
  br label %68

57:                                               ; preds = %6
  %58 = load ptr, ptr %8, align 8, !tbaa !27
  %59 = load i32, ptr %9, align 4, !tbaa !7
  %60 = load ptr, ptr %10, align 8, !tbaa !27
  %61 = load i32, ptr %11, align 4, !tbaa !7
  %62 = load ptr, ptr %12, align 8, !tbaa !3
  %63 = call i32 @RsaMGF1(i32 noundef 17, ptr noundef %58, i32 noundef %59, ptr noundef %60, i32 noundef %61, ptr noundef %62)
  store i32 %63, ptr %13, align 4, !tbaa !7
  br label %68

64:                                               ; preds = %6
  br label %65

65:                                               ; preds = %64
  br label %66

66:                                               ; preds = %65
  br label %67

67:                                               ; preds = %66
  store i32 -173, ptr %13, align 4, !tbaa !7
  br label %68

68:                                               ; preds = %67, %57, %50, %43, %36, %29, %22, %15
  %69 = load i32, ptr %13, align 4, !tbaa !7
  call void @llvm.lifetime.end.p0(i64 4, ptr %13) #8
  ret i32 %69
}