; Function Attrs: nounwind uwtable
define internal fastcc i32 @RsaMGF(i32 noundef %0, ptr noundef readonly captures(none) %1, i32 noundef %2, ptr noundef writeonly captures(none) %3, i32 noundef %4) unnamed_addr #0 {
  switch i32 %0, label %13 [
    i32 26, label %.sink.split
    i32 4, label %6
    i32 1, label %7
    i32 2, label %8
    i32 3, label %9
    i32 5, label %10
    i32 6, label %11
  ]

6:                                                ; preds = %5
  br label %.sink.split

7:                                                ; preds = %5
  br label %.sink.split

8:                                                ; preds = %5
  br label %.sink.split

9:                                                ; preds = %5
  br label %.sink.split

10:                                               ; preds = %5
  br label %.sink.split

11:                                               ; preds = %5
  br label %.sink.split

.sink.split:                                      ; preds = %5, %6, %7, %8, %9, %10, %11
  %.sink = phi i32 [ 17, %11 ], [ 16, %10 ], [ 8, %9 ], [ 7, %8 ], [ 6, %7 ], [ 5, %6 ], [ 4, %5 ]
  %12 = tail call fastcc i32 @RsaMGF1(i32 noundef %.sink, ptr noundef %1, i32 noundef %2, ptr noundef %3, i32 noundef %4)
  br label %13

13:                                               ; preds = %.sink.split, %5
  %.0 = phi i32 [ -173, %5 ], [ %12, %.sink.split ]
  ret i32 %.0
}